target datalayout = "e-m:e-p270:32:32-p271:32:32-p272:64:64-i64:64-i128:128-f80:128-n8:16:32:64-S128"
target triple = "x86_64-pc-linux-gnu"

%struct.object_id = type { [32 x i8], i32 }
%struct.name_entry = type { %struct.object_id, ptr, i32, i32 }

@is_null_oid.null_hash = internal constant [32 x i8] zeroinitializer, align 16

; Function Attrs: inlinehint nounwind uwtable
define internal i32 @oideq(ptr noundef %0, ptr noundef %1) #6 {
  %3 = alloca ptr, align 8
  %4 = alloca ptr, align 8
  store ptr %0, ptr %3, align 8, !tbaa !121
  store ptr %1, ptr %4, align 8, !tbaa !121
  %5 = load ptr, ptr %3, align 8, !tbaa !121
  %6 = getelementptr inbounds nuw %struct.object_id, ptr %5, i32 0, i32 0
  %7 = getelementptr inbounds [32 x i8], ptr %6, i64 0, i64 0
  %8 = load ptr, ptr %4, align 8, !tbaa !121
  %9 = getelementptr inbounds nuw %struct.object_id, ptr %8, i32 0, i32 0
  %10 = getelementptr inbounds [32 x i8], ptr %9, i64 0, i64 0
  %11 = call i32 @memcmp(ptr noundef %7, ptr noundef %10, i64 noundef 32) #12
  %12 = icmp ne i32 %11, 0
  %13 = xor i1 %12, true
  %14 = zext i1 %13 to i32
  ret i32 %14
}

; Function Attrs: inlinehint nounwind uwtable
define internal i32 @is_null_oid(ptr noundef %0) #6 {
  %2 = alloca ptr, align 8
  store ptr %0, ptr %2, align 8, !tbaa !121
  %3 = load ptr, ptr %2, align 8, !tbaa !121
  %4 = getelementptr inbounds nuw %struct.object_id, ptr %3, i32 0, i32 0
  %5 = getelementptr inbounds [32 x i8], ptr %4, i64 0, i64 0
  %6 = call i32 @memcmp(ptr noundef %5, ptr noundef @is_null_oid.null_hash, i64 noundef 32) #12
  %7 = icmp ne i32 %6, 0
  %8 = xor i1 %7, true
  %9 = zext i1 %8 to i32
  ret i32 %9
}

; Function Attrs: nounwind uwtable
define internal i32 @both_empty(ptr noundef %0, ptr noundef %1) #0 {
  %3 = alloca ptr, align 8
  %4 = alloca ptr, align 8
  store ptr %0, ptr %3, align 8, !tbaa !115
  store ptr %1, ptr %4, align 8, !tbaa !115
  %5 = load ptr, ptr %3, align 8, !tbaa !115
  %6 = getelementptr inbounds nuw %struct.name_entry, ptr %5, i32 0, i32 0
  %7 = call i32 @is_null_oid(ptr noundef %6)
  %8 = icmp ne i32 %7, 0
  br i1 %8, label %9, label %14

9:                                                ; preds = %2
  %10 = load ptr, ptr %4, align 8, !tbaa !115
  %11 = getelementptr inbounds nuw %struct.name_entry, ptr %10, i32 0, i32 0
  %12 = call i32 @is_null_oid(ptr noundef %11)
  %13 = icmp ne i32 %12, 0
  br label %14

14:                                               ; preds = %9, %2
  %15 = phi i1 [ false, %2 ], [ %13, %9 ]
  %16 = zext i1 %15 to i32
  ret i32 %16
}

; Function Attrs: nounwind uwtable
define internal i32 @same_entry(ptr noundef %0, ptr noundef %1) #0 {
  %3 = alloca ptr, align 8
  %4 = alloca ptr, align 8
  store ptr %0, ptr %3, align 8, !tbaa !115
  store ptr %1, ptr %4, align 8, !tbaa !115
  %5 = load ptr, ptr %3, align 8, !tbaa !115
  %6 = getelementptr inbounds nuw %struct.name_entry, ptr %5, i32 0, i32 0
  %7 = call i32 @is_null_oid(ptr noundef %6)
  %8 = icmp ne i32 %7, 0
  br i1 %8, label %29, label %9

9:                                                ; preds = %2
  %10 = load ptr, ptr %4, align 8, !tbaa !115
  %11 = getelementptr inbounds nuw %struct.name_entry, ptr %10, i32 0, i32 0
  %12 = call i32 @is_null_oid(ptr noundef %11)
  %13 = icmp ne i32 %12, 0
  br i1 %13, label %29, label %14

14:                                               ; preds = %9
  %15 = load ptr, ptr %3, align 8, !tbaa !115
  %16 = getelementptr inbounds nuw %struct.name_entry, ptr %15, i32 0, i32 0
  %17 = load ptr, ptr %4, align 8, !tbaa !115
  %18 = getelementptr inbounds nuw %struct.name_entry, ptr %17, i32 0, i32 0
  %19 = call i32 @oideq(ptr noundef %16, ptr noundef %18)
  %20 = icmp ne i32 %19, 0
  br i1 %20, label %21, label %29

21:                                               ; preds = %14
  %22 = load ptr, ptr %3, align 8, !tbaa !115
  %23 = getelementptr inbounds nuw %struct.name_entry, ptr %22, i32 0, i32 3
  %24 = load i32, ptr %23, align 4, !tbaa !118
  %25 = load ptr, ptr %4, align 8, !tbaa !115
  %26 = getelementptr inbounds nuw %struct.name_entry, ptr %25, i32 0, i32 3
  %27 = load i32, ptr %26, align 4, !tbaa !118
  %28 = icmp eq i32 %24, %27
  br label %29

29:                                               ; preds = %21, %14, %9, %2
  %30 = phi i1 [ false, %14 ], [ false, %9 ], [ false, %2 ], [ %28, %21 ]
  %31 = zext i1 %30 to i32
  ret i32 %31
}

; Function Attrs: nounwind uwtable
define internal i32 @threeway_callback(i32 noundef %0, i64 noundef %1, i64 noundef %2, ptr noundef %3, ptr noundef %4) #0 {
  %6 = alloca i32, align 4
  %7 = alloca i32, align 4
  %8 = alloca i64, align 8
  %9 = alloca i64, align 8
  %10 = alloca ptr, align 8
  %11 = alloca ptr, align 8
  store i32 %0, ptr %7, align 4, !tbaa !4
  store i64 %1, ptr %8, align 8, !tbaa !36
  store i64 %2, ptr %9, align 8, !tbaa !36
  store ptr %3, ptr %10, align 8, !tbaa !115
  store ptr %4, ptr %11, align 8, !tbaa !117
  %12 = load ptr, ptr %10, align 8, !tbaa !115
  %13 = getelementptr inbounds %struct.name_entry, ptr %12, i64 1
  %14 = load ptr, ptr %10, align 8, !tbaa !115
  %15 = getelementptr inbounds %struct.name_entry, ptr %14, i64 2
  %16 = call i32 @same_entry(ptr noundef %13, ptr noundef %15)
  %17 = icmp ne i32 %16, 0
  br i1 %17, label %25, label %18

18:                                               ; preds = %5
  %19 = load ptr, ptr %10, align 8, !tbaa !115
  %20 = getelementptr inbounds %struct.name_entry, ptr %19, i64 1
  %21 = load ptr, ptr %10, align 8, !tbaa !115
  %22 = getelementptr inbounds %struct.name_entry, ptr %21, i64 2
  %23 = call i32 @both_empty(ptr noundef %20, ptr noundef %22)
  %24 = icmp ne i32 %23, 0
  br i1 %24, label %25, label %31

25:                                               ; preds = %18, %5
  %26 = load ptr, ptr %11, align 8, !tbaa !117
  %27 = load ptr, ptr %10, align 8, !tbaa !115
  %28 = getelementptr inbounds %struct.name_entry, ptr %27, i64 1
  call void @resolve(ptr noundef %26, ptr noundef null, ptr noundef %28)
  %29 = load i64, ptr %8, align 8, !tbaa !36
  %30 = trunc i64 %29 to i32
  store i32 %30, ptr %6, align 4
  br label %85

31:                                               ; preds = %18
  %32 = load ptr, ptr %10, align 8, !tbaa !115
  %33 = getelementptr inbounds %struct.name_entry, ptr %32, i64 0
  %34 = load ptr, ptr %10, align 8, !tbaa !115
  %35 = getelementptr inbounds %struct.name_entry, ptr %34, i64 1
  %36 = call i32 @same_entry(ptr noundef %33, ptr noundef %35)
  %37 = icmp ne i32 %36, 0
  br i1 %37, label %38, label %60

38:                                               ; preds = %31
  %39 = load ptr, ptr %10, align 8, !tbaa !115
  %40 = getelementptr inbounds %struct.name_entry, ptr %39, i64 2
  %41 = getelementptr inbounds nuw %struct.name_entry, ptr %40, i32 0, i32 0
  %42 = call i32 @is_null_oid(ptr noundef %41)
  %43 = icmp ne i32 %42, 0
  br i1 %43, label %59, label %44

44:                                               ; preds = %38
  %45 = load ptr, ptr %10, align 8, !tbaa !115
  %46 = getelementptr inbounds %struct.name_entry, ptr %45, i64 2
  %47 = getelementptr inbounds nuw %struct.name_entry, ptr %46, i32 0, i32 3
  %48 = load i32, ptr %47, align 4, !tbaa !118
  %49 = and i32 %48, 61440
  %50 = icmp eq i32 %49, 16384
  br i1 %50, label %59, label %51

51:                                               ; preds = %44
  %52 = load ptr, ptr %11, align 8, !tbaa !117
  %53 = load ptr, ptr %10, align 8, !tbaa !115
  %54 = getelementptr inbounds %struct.name_entry, ptr %53, i64 1
  %55 = load ptr, ptr %10, align 8, !tbaa !115
  %56 = getelementptr inbounds %struct.name_entry, ptr %55, i64 2
  call void @resolve(ptr noundef %52, ptr noundef %54, ptr noundef %56)
  %57 = load i64, ptr %8, align 8, !tbaa !36
  %58 = trunc i64 %57 to i32
  store i32 %58, ptr %6, align 4
  br label %85

59:                                               ; preds = %44, %38
  br label %60

60:                                               ; preds = %59, %31
  %61 = load ptr, ptr %10, align 8, !tbaa !115
  %62 = getelementptr inbounds %struct.name_entry, ptr %61, i64 0
  %63 = load ptr, ptr %10, align 8, !tbaa !115
  %64 = getelementptr inbounds %struct.name_entry, ptr %63, i64 2
  %65 = call i32 @same_entry(ptr noundef %62, ptr noundef %64)
  %66 = icmp ne i32 %65, 0
  br i1 %66, label %74, label %67

67:                                               ; preds = %60
  %68 = load ptr, ptr %10, align 8, !tbaa !115
  %69 = getelementptr inbounds %struct.name_entry, ptr %68, i64 0
  %70 = load ptr, ptr %10, align 8, !tbaa !115
  %71 = getelementptr inbounds %struct.name_entry, ptr %70, i64 2
  %72 = call i32 @both_empty(ptr noundef %69, ptr noundef %71)
  %73 = icmp ne i32 %72, 0
  br i1 %73, label %74, label %80

74:                                               ; preds = %67, %60
  %75 = load ptr, ptr %11, align 8, !tbaa !117
  %76 = load ptr, ptr %10, align 8, !tbaa !115
  %77 = getelementptr inbounds %struct.name_entry, ptr %76, i64 1
  call void @resolve(ptr noundef %75, ptr noundef null, ptr noundef %77)
  %78 = load i64, ptr %8, align 8, !tbaa !36
  %79 = trunc i64 %78 to i32
  store i32 %79, ptr %6, align 4
  br label %85

80:                                               ; preds = %67
  %81 = load ptr, ptr %11, align 8, !tbaa !117
  %82 = load ptr, ptr %10, align 8, !tbaa !115
  call void @unresolved(ptr noundef %81, ptr noundef %82)
  %83 = load i64, ptr %8, align 8, !tbaa !36
  %84 = trunc i64 %83 to i32
  store i32 %84, ptr %6, align 4
  br label %85

85:                                               ; preds = %80, %74, %51, %25
  %86 = load i32, ptr %6, align 4
  ret i32 %86
}