; Function Attrs: nounwind uwtable
define internal noundef i32 @threeway_callback(i32 %0, i64 noundef %1, i64 %2, ptr noundef %3, ptr noundef %4) #0 {
  %6 = getelementptr inbounds nuw i8, ptr %3, i64 56
  %7 = getelementptr inbounds nuw i8, ptr %3, i64 112
  %bcmp.i.i = tail call i32 @bcmp(ptr noundef nonnull readonly dereferenceable(32) %6, ptr noundef nonnull dereferenceable(32) @is_null_oid.null_hash, i64 32)
  %.not.i.not.i = icmp eq i32 %bcmp.i.i, 0
  %bcmp.i2.i = tail call i32 @bcmp(ptr noundef nonnull readonly dereferenceable(32) %7, ptr noundef nonnull dereferenceable(32) @is_null_oid.null_hash, i64 32)
  %.not.i3.i.not = icmp eq i32 %bcmp.i2.i, 0
  br i1 %.not.i.not.i, label %both_empty.exit, label %8

8:                                                ; preds = %5
  br i1 %.not.i3.i.not, label %.thread54, label %9

9:                                                ; preds = %8
  %bcmp.i10.i = tail call i32 @bcmp(ptr noundef nonnull readonly dereferenceable(32) %6, ptr noundef nonnull readonly dereferenceable(32) %7, i64 32)
  %.not.i11.not.i = icmp eq i32 %bcmp.i10.i, 0
  br i1 %.not.i11.not.i, label %same_entry.exit, label %.thread54

same_entry.exit:                                  ; preds = %9
  %10 = getelementptr inbounds nuw i8, ptr %3, i64 108
  %11 = load i32, ptr %10, align 4, !tbaa !109
  %12 = getelementptr inbounds nuw i8, ptr %3, i64 164
  %13 = load i32, ptr %12, align 4, !tbaa !109
  %.not = icmp eq i32 %11, %13
  br i1 %.not, label %31, label %.thread54

both_empty.exit:                                  ; preds = %5
  br i1 %.not.i3.i.not, label %31, label %14

14:                                               ; preds = %both_empty.exit
  %bcmp.i.i32 = tail call i32 @bcmp(ptr noundef nonnull readonly dereferenceable(32) %3, ptr noundef nonnull dereferenceable(32) @is_null_oid.null_hash, i64 32)
  %.not.i.not.i33 = icmp eq i32 %bcmp.i.i32, 0
  br i1 %.not.i.not.i33, label %both_empty.exit50, label %.thread72

.thread54:                                        ; preds = %8, %9, %same_entry.exit
  %bcmp.i.i3255 = tail call i32 @bcmp(ptr noundef nonnull readonly dereferenceable(32) %3, ptr noundef nonnull dereferenceable(32) @is_null_oid.null_hash, i64 32)
  %.not.i.not.i3356 = icmp eq i32 %bcmp.i.i3255, 0
  br i1 %.not.i.not.i3356, label %both_empty.exit50, label %15

15:                                               ; preds = %.thread54
  %bcmp.i10.i36 = tail call i32 @bcmp(ptr noundef nonnull readonly dereferenceable(32) %3, ptr noundef nonnull readonly dereferenceable(32) %6, i64 32)
  %.not.i11.not.i37 = icmp eq i32 %bcmp.i10.i36, 0
  br i1 %.not.i11.not.i37, label %same_entry.exit38, label %.thread72

same_entry.exit38:                                ; preds = %15
  %16 = getelementptr inbounds nuw i8, ptr %3, i64 52
  %17 = load i32, ptr %16, align 4, !tbaa !109
  %18 = getelementptr inbounds nuw i8, ptr %3, i64 108
  %19 = load i32, ptr %18, align 4, !tbaa !109
  %.not83 = icmp ne i32 %17, %19
  %brmerge = select i1 %.not83, i1 true, i1 %.not.i3.i.not
  br i1 %brmerge, label %.thread72, label %20

20:                                               ; preds = %same_entry.exit38
  %21 = getelementptr inbounds nuw i8, ptr %3, i64 164
  %22 = load i32, ptr %21, align 4, !tbaa !109
  %23 = and i32 %22, 61440
  %24 = icmp eq i32 %23, 16384
  br i1 %24, label %.thread72, label %25

25:                                               ; preds = %20
  tail call fastcc void @resolve(ptr noundef %4, ptr noundef nonnull %6, ptr noundef nonnull %7)
  br label %31

.thread72:                                        ; preds = %same_entry.exit38, %20, %15, %14
  %bcmp.i8.i41 = tail call i32 @bcmp(ptr noundef nonnull readonly dereferenceable(32) %7, ptr noundef nonnull dereferenceable(32) @is_null_oid.null_hash, i64 32)
  %.not.i9.not.i42 = icmp eq i32 %bcmp.i8.i41, 0
  br i1 %.not.i9.not.i42, label %both_empty.exit50.thread, label %26

26:                                               ; preds = %.thread72
  %bcmp.i10.i43 = tail call i32 @bcmp(ptr noundef nonnull readonly dereferenceable(32) %3, ptr noundef nonnull readonly dereferenceable(32) %7, i64 32)
  %.not.i11.not.i44 = icmp eq i32 %bcmp.i10.i43, 0
  br i1 %.not.i11.not.i44, label %same_entry.exit45, label %both_empty.exit50.thread

same_entry.exit45:                                ; preds = %26
  %27 = getelementptr inbounds nuw i8, ptr %3, i64 52
  %28 = load i32, ptr %27, align 4, !tbaa !109
  %29 = getelementptr inbounds nuw i8, ptr %3, i64 164
  %30 = load i32, ptr %29, align 4, !tbaa !109
  %.not84 = icmp eq i32 %28, %30
  br i1 %.not84, label %31, label %both_empty.exit50.thread

both_empty.exit50:                                ; preds = %.thread54, %14
  %bcmp.i2.i48 = tail call i32 @bcmp(ptr noundef nonnull readonly dereferenceable(32) %7, ptr noundef nonnull dereferenceable(32) @is_null_oid.null_hash, i64 32)
  %.not.i3.i49.not = icmp eq i32 %bcmp.i2.i48, 0
  br i1 %.not.i3.i49.not, label %31, label %both_empty.exit50.thread

both_empty.exit50.thread:                         ; preds = %same_entry.exit45, %.thread72, %26, %both_empty.exit50
  tail call fastcc void @unresolved(ptr noundef %4, ptr noundef nonnull %3)
  br label %31

31:                                               ; preds = %same_entry.exit45, %both_empty.exit50, %same_entry.exit, %both_empty.exit, %both_empty.exit50.thread, %25
  %.0 = trunc i64 %1 to i32
  ret i32 %.0
}